target datalayout = "e-m:e-p270:32:32-p271:32:32-p272:64:64-i64:64-i128:128-f80:128-n8:16:32:64-S128"
target triple = "x86_64-unknown-linux-gnu"

%struct.hdr_histogram = type { i64, i64, i32, i32, i32, i32, i64, i32, i32, i64, i64, i32, double, i32, i64, ptr }

; Function Attrs: nounwind uwtable
define internal i32 @count_leading_zeros_64(i64 noundef %value) #0 {
entry:
  %value.addr = alloca i64, align 8
  store i64 %value, ptr %value.addr, align 8
  %0 = load i64, ptr %value.addr, align 8
  %1 = call i64 @llvm.ctlz.i64(i64 %0, i1 true)
  %cast = trunc i64 %1 to i32
  ret i32 %cast
}

; Function Attrs: nounwind uwtable
define internal i32 @counts_index(ptr noundef %h, i32 noundef %bucket_index, i32 noundef %sub_bucket_index) #0 {
entry:
  %h.addr = alloca ptr, align 8
  %bucket_index.addr = alloca i32, align 4
  %sub_bucket_index.addr = alloca i32, align 4
  %bucket_base_index = alloca i32, align 4
  %offset_in_bucket = alloca i32, align 4
  store ptr %h, ptr %h.addr, align 8
  store i32 %bucket_index, ptr %bucket_index.addr, align 4
  store i32 %sub_bucket_index, ptr %sub_bucket_index.addr, align 4
  %0 = load i32, ptr %bucket_index.addr, align 4
  %add = add nsw i32 %0, 1
  %1 = load ptr, ptr %h.addr, align 8
  %sub_bucket_half_count_magnitude = getelementptr inbounds %struct.hdr_histogram, ptr %1, i32 0, i32 4
  %2 = load i32, ptr %sub_bucket_half_count_magnitude, align 8
  %shl = shl i32 %add, %2
  store i32 %shl, ptr %bucket_base_index, align 4
  %3 = load i32, ptr %sub_bucket_index.addr, align 4
  %4 = load ptr, ptr %h.addr, align 8
  %sub_bucket_half_count = getelementptr inbounds %struct.hdr_histogram, ptr %4, i32 0, i32 5
  %5 = load i32, ptr %sub_bucket_half_count, align 4
  %sub = sub nsw i32 %3, %5
  store i32 %sub, ptr %offset_in_bucket, align 4
  %6 = load i32, ptr %bucket_base_index, align 4
  %7 = load i32, ptr %offset_in_bucket, align 4
  %add1 = add nsw i32 %6, %7
  ret i32 %add1
}

; Function Attrs: nounwind uwtable
define internal i32 @get_sub_bucket_index(i64 noundef %value, i32 noundef %bucket_index, i32 noundef %unit_magnitude) #0 {
entry:
  %value.addr = alloca i64, align 8
  %bucket_index.addr = alloca i32, align 4
  %unit_magnitude.addr = alloca i32, align 4
  store i64 %value, ptr %value.addr, align 8
  store i32 %bucket_index, ptr %bucket_index.addr, align 4
  store i32 %unit_magnitude, ptr %unit_magnitude.addr, align 4
  %0 = load i64, ptr %value.addr, align 8
  %1 = load i32, ptr %bucket_index.addr, align 4
  %2 = load i32, ptr %unit_magnitude.addr, align 4
  %add = add nsw i32 %1, %2
  %sh_prom = zext i32 %add to i64
  %shr = ashr i64 %0, %sh_prom
  %conv = trunc i64 %shr to i32
  ret i32 %conv
}

; Function Attrs: nounwind uwtable
define internal i32 @get_bucket_index(ptr noundef %h, i64 noundef %value) #0 {
entry:
  %h.addr = alloca ptr, align 8
  %value.addr = alloca i64, align 8
  %pow2ceiling = alloca i32, align 4
  store ptr %h, ptr %h.addr, align 8
  store i64 %value, ptr %value.addr, align 8
  %0 = load i64, ptr %value.addr, align 8
  %1 = load ptr, ptr %h.addr, align 8
  %sub_bucket_mask = getelementptr inbounds %struct.hdr_histogram, ptr %1, i32 0, i32 6
  %2 = load i64, ptr %sub_bucket_mask, align 8
  %or = or i64 %0, %2
  %call = call i32 @count_leading_zeros_64(i64 noundef %or)
  %sub = sub nsw i32 64, %call
  store i32 %sub, ptr %pow2ceiling, align 4
  %3 = load i32, ptr %pow2ceiling, align 4
  %4 = load ptr, ptr %h.addr, align 8
  %unit_magnitude = getelementptr inbounds %struct.hdr_histogram, ptr %4, i32 0, i32 2
  %5 = load i32, ptr %unit_magnitude, align 8
  %sub1 = sub nsw i32 %3, %5
  %6 = load ptr, ptr %h.addr, align 8
  %sub_bucket_half_count_magnitude = getelementptr inbounds %struct.hdr_histogram, ptr %6, i32 0, i32 4
  %7 = load i32, ptr %sub_bucket_half_count_magnitude, align 8
  %add = add nsw i32 %7, 1
  %sub2 = sub nsw i32 %sub1, %add
  ret i32 %sub2
}

; Function Attrs: nounwind uwtable
define dso_local i32 @counts_index_for(ptr noundef %h, i64 noundef %value) #0 {
entry:
  %h.addr = alloca ptr, align 8
  %value.addr = alloca i64, align 8
  %bucket_index = alloca i32, align 4
  %sub_bucket_index = alloca i32, align 4
  store ptr %h, ptr %h.addr, align 8
  store i64 %value, ptr %value.addr, align 8
  %0 = load ptr, ptr %h.addr, align 8
  %1 = load i64, ptr %value.addr, align 8
  %call = call i32 @get_bucket_index(ptr noundef %0, i64 noundef %1)
  store i32 %call, ptr %bucket_index, align 4
  %2 = load i64, ptr %value.addr, align 8
  %3 = load i32, ptr %bucket_index, align 4
  %4 = load ptr, ptr %h.addr, align 8
  %unit_magnitude = getelementptr inbounds %struct.hdr_histogram, ptr %4, i32 0, i32 2
  %5 = load i32, ptr %unit_magnitude, align 8
  %call1 = call i32 @get_sub_bucket_index(i64 noundef %2, i32 noundef %3, i32 noundef %5)
  store i32 %call1, ptr %sub_bucket_index, align 4
  %6 = load ptr, ptr %h.addr, align 8
  %7 = load i32, ptr %bucket_index, align 4
  %8 = load i32, ptr %sub_bucket_index, align 4
  %call2 = call i32 @counts_index(ptr noundef %6, i32 noundef %7, i32 noundef %8)
  ret i32 %call2
}