; Function Attrs: mustprogress nofree norecurse nosync nounwind willreturn memory(argmem: read) uwtable
define dso_local i32 @counts_index_for(ptr nocapture noundef readonly %h, i64 noundef %value) local_unnamed_addr #0 {
entry:
  %sub_bucket_mask.i = getelementptr inbounds i8, ptr %h, i64 32
  %0 = load i64, ptr %sub_bucket_mask.i, align 8
  %or.i = or i64 %0, %value
  %1 = tail call i64 @llvm.ctlz.i64(i64 %or.i, i1 true), !range !5
  %cast.i.i = trunc i64 %1 to i32
  %unit_magnitude.i = getelementptr inbounds i8, ptr %h, i64 16
  %2 = load i32, ptr %unit_magnitude.i, align 8
  %sub_bucket_half_count_magnitude.i = getelementptr inbounds i8, ptr %h, i64 24
  %3 = load i32, ptr %sub_bucket_half_count_magnitude.i, align 8
  %4 = add i32 %3, %2
  %5 = add i32 %4, %cast.i.i
  %reass.sub = add i32 %2, 63
  %add.i = sub i32 %reass.sub, %5
  %sh_prom.i = zext nneg i32 %add.i to i64
  %shr.i = ashr i64 %value, %sh_prom.i
  %conv.i = trunc i64 %shr.i to i32
  %6 = getelementptr i8, ptr %h, i64 28
  %h.val5 = load i32, ptr %6, align 4
  %add.i6 = sub i32 64, %5
  %shl.i = shl i32 %add.i6, %3
  %sub.i = sub i32 %shl.i, %h.val5
  %add1.i = add i32 %sub.i, %conv.i
  ret i32 %add1.i
}